target datalayout = "e-m:e-p270:32:32-p271:32:32-p272:64:64-i64:64-i128:128-f80:128-n8:16:32:64-S128"
target triple = "x86_64-pc-linux-gnu"

@node_record_count = external global i32, align 4
@.str = private unnamed_addr constant [13 x i8] c"core_array.c\00", align 1
@__func__.copy_core_array = private unnamed_addr constant [16 x i8] c"copy_core_array\00", align 1

; Function Attrs: nounwind uwtable
define dso_local ptr @copy_core_array(ptr noundef %0) #0 {
  %2 = alloca ptr, align 8
  %3 = alloca ptr, align 8
  %4 = alloca i32, align 4
  store ptr %0, ptr %2, align 8
  call void @llvm.lifetime.start.p0(i64 8, ptr %3) #3
  store ptr null, ptr %3, align 8
  call void @llvm.lifetime.start.p0(i64 4, ptr %4) #3
  %5 = load ptr, ptr %2, align 8
  %6 = icmp ne ptr %5, null
  br i1 %6, label %7, label %39

7:                                                ; preds = %1
  %8 = load i32, ptr @node_record_count, align 4
  %9 = sext i32 %8 to i64
  %10 = mul i64 8, %9
  %11 = call ptr @slurm_xcalloc(i64 noundef 1, i64 noundef %10, i1 noundef zeroext true, i1 noundef zeroext false, ptr noundef @.str, i32 noundef 76, ptr noundef @__func__.copy_core_array)
  store ptr %11, ptr %3, align 8
  store i32 0, ptr %4, align 4
  br label %12

12:                                               ; preds = %35, %7
  %13 = load i32, ptr %4, align 4
  %14 = load i32, ptr @node_record_count, align 4
  %15 = icmp slt i32 %13, %14
  br i1 %15, label %16, label %38

16:                                               ; preds = %12
  %17 = load ptr, ptr %2, align 8
  %18 = load i32, ptr %4, align 4
  %19 = sext i32 %18 to i64
  %20 = getelementptr inbounds ptr, ptr %17, i64 %19
  %21 = load ptr, ptr %20, align 8
  %22 = icmp ne ptr %21, null
  br i1 %22, label %23, label %34

23:                                               ; preds = %16
  %24 = load ptr, ptr %2, align 8
  %25 = load i32, ptr %4, align 4
  %26 = sext i32 %25 to i64
  %27 = getelementptr inbounds ptr, ptr %24, i64 %26
  %28 = load ptr, ptr %27, align 8
  %29 = call ptr @bit_copy(ptr noundef %28)
  %30 = load ptr, ptr %3, align 8
  %31 = load i32, ptr %4, align 4
  %32 = sext i32 %31 to i64
  %33 = getelementptr inbounds ptr, ptr %30, i64 %32
  store ptr %29, ptr %33, align 8
  br label %34

34:                                               ; preds = %23, %16
  br label %35

35:                                               ; preds = %34
  %36 = load i32, ptr %4, align 4
  %37 = add nsw i32 %36, 1
  store i32 %37, ptr %4, align 4
  br label %12, !llvm.loop !11

38:                                               ; preds = %12
  br label %39

39:                                               ; preds = %38, %1
  %40 = load ptr, ptr %3, align 8
  call void @llvm.lifetime.end.p0(i64 4, ptr %4) #3
  call void @llvm.lifetime.end.p0(i64 8, ptr %3) #3
  ret ptr %40
}