; Function Attrs: nounwind uwtable
define dso_local ptr @copy_core_array(ptr noundef readonly captures(address_is_null) %0) local_unnamed_addr #0 {
  %.not = icmp eq ptr %0, null
  br i1 %.not, label %.loopexit, label %2

2:                                                ; preds = %1
  %3 = load i32, ptr @node_record_count, align 4
  %4 = sext i32 %3 to i64
  %5 = shl nsw i64 %4, 3
  %6 = tail call ptr @slurm_xcalloc(i64 noundef 1, i64 noundef %5, i1 noundef zeroext true, i1 noundef zeroext false, ptr noundef nonnull @.str, i32 noundef 76, ptr noundef nonnull @__func__.copy_core_array) #3
  %7 = load i32, ptr @node_record_count, align 4
  %8 = icmp sgt i32 %7, 0
  br i1 %8, label %.lr.ph, label %.loopexit

.lr.ph:                                           ; preds = %2, %15
  %9 = phi i32 [ %16, %15 ], [ %7, %2 ]
  %indvars.iv = phi i64 [ %indvars.iv.next, %15 ], [ 0, %2 ]
  %10 = getelementptr inbounds nuw ptr, ptr %0, i64 %indvars.iv
  %11 = load ptr, ptr %10, align 8
  %.not12 = icmp eq ptr %11, null
  br i1 %.not12, label %15, label %12

12:                                               ; preds = %.lr.ph
  %13 = tail call ptr @bit_copy(ptr noundef nonnull %11) #3
  %14 = getelementptr inbounds nuw ptr, ptr %6, i64 %indvars.iv
  store ptr %13, ptr %14, align 8
  %.pre = load i32, ptr @node_record_count, align 4
  br label %15

15:                                               ; preds = %.lr.ph, %12
  %16 = phi i32 [ %9, %.lr.ph ], [ %.pre, %12 ]
  %indvars.iv.next = add nuw nsw i64 %indvars.iv, 1
  %17 = sext i32 %16 to i64
  %18 = icmp slt i64 %indvars.iv.next, %17
  br i1 %18, label %.lr.ph, label %.loopexit, !llvm.loop !11

.loopexit:                                        ; preds = %15, %2, %1
  %.09 = phi ptr [ null, %1 ], [ %6, %2 ], [ %6, %15 ]
  ret ptr %.09
}